target datalayout = "e-m:e-p270:32:32-p271:32:32-p272:64:64-i64:64-i128:128-f80:128-n8:16:32:64-S128"
target triple = "x86_64-pc-linux-gnu"

%struct.darktable_t = type { %struct.dt_codepath_t, i32, i32, ptr, ptr, ptr, ptr, ptr, ptr, ptr, ptr, ptr, ptr, ptr, ptr, ptr, ptr, ptr, ptr, ptr, ptr, ptr, ptr, ptr, ptr, ptr, ptr, ptr, ptr, ptr, [64 x %struct.dt_pthread_mutex_t], %struct.dt_pthread_mutex_t, %struct.dt_pthread_mutex_t, %struct.dt_pthread_mutex_t, %struct.dt_pthread_mutex_t, %struct.dt_pthread_mutex_t, ptr, ptr, ptr, ptr, ptr, ptr, ptr, ptr, ptr, ptr, ptr, ptr, ptr, %struct.dt_lua_state_t, ptr, double, ptr, i32, [47 x i32], i32, i32, ptr, ptr, %struct.dt_sys_resources_t, %struct.dt_backthumb_t, %struct.dt_gimp_t }
%struct.dt_codepath_t = type { i8, [3 x i8] }
%struct.dt_pthread_mutex_t = type { %union.pthread_mutex_t }
%union.pthread_mutex_t = type { %struct.__pthread_mutex_s }
%struct.__pthread_mutex_s = type { i32, i32, i32, i32, i32, i16, i16, %struct.__pthread_internal_list }
%struct.__pthread_internal_list = type { ptr, ptr }
%struct.dt_lua_state_t = type { i32 }
%struct.dt_sys_resources_t = type { i64, i64, ptr, ptr, i32 }
%struct.dt_backthumb_t = type { double, double, i32, i32, i32, i32 }
%struct.dt_gimp_t = type { i32, ptr, ptr, i32, i32 }
%struct.dt_database_t = type { i32, ptr, ptr, ptr, ptr, ptr, ptr, ptr, i32 }

@darktable = external global %struct.darktable_t, align 8
@.str.19 = private unnamed_addr constant [10 x i8] c"PRAGMA %s\00", align 1
@.str.23 = private unnamed_addr constant [9 x i8] c":memory:\00", align 1
@.str.84 = private unnamed_addr constant [20 x i8] c"main.freelist_count\00", align 1
@.str.85 = private unnamed_addr constant [15 x i8] c"main.page_size\00", align 1
@.str.86 = private unnamed_addr constant [20 x i8] c"data.freelist_count\00", align 1
@.str.87 = private unnamed_addr constant [15 x i8] c"data.page_size\00", align 1
@.str.97 = private unnamed_addr constant [16 x i8] c"main.page_count\00", align 1
@.str.98 = private unnamed_addr constant [16 x i8] c"data.page_count\00", align 1
@.str.99 = private unnamed_addr constant [58 x i8] c"[db maintenance] main: [%d/%d pages], data: [%d/%d pages]\00", align 1
@.str.100 = private unnamed_addr constant [76 x i8] c"[db maintenance] page_count <= 0 : main.page_count: %d, data.page_count: %d\00", align 1
@.str.101 = private unnamed_addr constant [36 x i8] c"database/maintenance_freepage_ratio\00", align 1
@.str.102 = private unnamed_addr constant [48 x i8] c"[db maintenance] maintenance, %lu bytes to free\00", align 1

; Function Attrs: nounwind uwtable
define i32 @_get_pragma_int_val(ptr noundef %0, ptr noundef %1) #0 {
  %3 = alloca ptr, align 8
  %4 = alloca ptr, align 8
  %5 = alloca ptr, align 8
  %6 = alloca i32, align 4
  %7 = alloca ptr, align 8
  %8 = alloca i32, align 4
  store ptr %0, ptr %3, align 8, !tbaa !63
  store ptr %1, ptr %4, align 8, !tbaa !18
  call void @llvm.lifetime.start.p0(i64 8, ptr %5) #13
  %9 = load ptr, ptr %4, align 8, !tbaa !18
  %10 = call noalias ptr (ptr, ...) @g_strdup_printf(ptr noundef @.str.19, ptr noundef %9)
  store ptr %10, ptr %5, align 8, !tbaa !18
  call void @llvm.lifetime.start.p0(i64 4, ptr %6) #13
  store i32 -1, ptr %6, align 4, !tbaa !21
  call void @llvm.lifetime.start.p0(i64 8, ptr %7) #13
  call void @llvm.lifetime.start.p0(i64 4, ptr %8) #13
  %11 = load ptr, ptr %3, align 8, !tbaa !63
  %12 = load ptr, ptr %5, align 8, !tbaa !18
  %13 = call i32 @sqlite3_prepare_v2(ptr noundef %11, ptr noundef %12, i32 noundef -1, ptr noundef %7, ptr noundef null)
  store i32 %13, ptr %8, align 4, !tbaa !21
  %14 = load i32, ptr %8, align 4, !tbaa !21
  %15 = icmp eq i32 %14, 0
  br i1 %15, label %16, label %23

16:                                               ; preds = %2
  %17 = load ptr, ptr %7, align 8, !tbaa !64
  %18 = call i32 @sqlite3_step(ptr noundef %17)
  %19 = icmp eq i32 %18, 100
  br i1 %19, label %20, label %23

20:                                               ; preds = %16
  %21 = load ptr, ptr %7, align 8, !tbaa !64
  %22 = call i32 @sqlite3_column_int(ptr noundef %21, i32 noundef 0)
  store i32 %22, ptr %6, align 4, !tbaa !21
  br label %23

23:                                               ; preds = %20, %16, %2
  %24 = load ptr, ptr %7, align 8, !tbaa !64
  %25 = call i32 @sqlite3_finalize(ptr noundef %24)
  %26 = load ptr, ptr %5, align 8, !tbaa !18
  call void @g_free(ptr noundef %26)
  %27 = load i32, ptr %6, align 4, !tbaa !21
  call void @llvm.lifetime.end.p0(i64 4, ptr %8) #13
  call void @llvm.lifetime.end.p0(i64 8, ptr %7) #13
  call void @llvm.lifetime.end.p0(i64 4, ptr %6) #13
  call void @llvm.lifetime.end.p0(i64 8, ptr %5) #13
  ret i32 %27
}

; Function Attrs: inlinehint nounwind uwtable
define internal i32 @_is_mem_db(ptr noundef %0) #8 {
  %2 = alloca ptr, align 8
  store ptr %0, ptr %2, align 8, !tbaa !6
  %3 = load ptr, ptr %2, align 8, !tbaa !6
  %4 = getelementptr inbounds nuw %struct.dt_database_t, ptr %3, i32 0, i32 1
  %5 = load ptr, ptr %4, align 8, !tbaa !66
  %6 = call i32 @g_strcmp0(ptr noundef %5, ptr noundef @.str.23)
  %7 = icmp ne i32 %6, 0
  br i1 %7, label %8, label %15

8:                                                ; preds = %1
  %9 = load ptr, ptr %2, align 8, !tbaa !6
  %10 = getelementptr inbounds nuw %struct.dt_database_t, ptr %9, i32 0, i32 3
  %11 = load ptr, ptr %10, align 8, !tbaa !67
  %12 = call i32 @g_strcmp0(ptr noundef %11, ptr noundef @.str.23)
  %13 = icmp ne i32 %12, 0
  %14 = xor i1 %13, true
  br label %15

15:                                               ; preds = %8, %1
  %16 = phi i1 [ true, %1 ], [ %14, %8 ]
  %17 = zext i1 %16 to i32
  ret i32 %17
}

; Function Attrs: nounwind uwtable
define i32 @dt_database_maybe_maintenance(ptr noundef %0) #0 {
  %2 = alloca i32, align 4
  %3 = alloca ptr, align 8
  %4 = alloca i32, align 4
  %5 = alloca i32, align 4
  %6 = alloca i32, align 4
  %7 = alloca i32, align 4
  %8 = alloca i32, align 4
  %9 = alloca i32, align 4
  %10 = alloca i32, align 4
  %11 = alloca i32, align 4
  %12 = alloca i32, align 4
  %13 = alloca i32, align 4
  %14 = alloca i64, align 8
  store ptr %0, ptr %3, align 8, !tbaa !6
  %15 = load ptr, ptr %3, align 8, !tbaa !6
  %16 = call i32 @_is_mem_db(ptr noundef %15)
  %17 = icmp ne i32 %16, 0
  br i1 %17, label %18, label %19

18:                                               ; preds = %1
  store i32 0, ptr %2, align 4
  br label %125

19:                                               ; preds = %1
  call void @llvm.lifetime.start.p0(i64 4, ptr %4) #13
  %20 = load ptr, ptr %3, align 8, !tbaa !6
  %21 = getelementptr inbounds nuw %struct.dt_database_t, ptr %20, i32 0, i32 5
  %22 = load ptr, ptr %21, align 8, !tbaa !11
  %23 = call i32 @_get_pragma_int_val(ptr noundef %22, ptr noundef @.str.84)
  store i32 %23, ptr %4, align 4, !tbaa !21
  call void @llvm.lifetime.start.p0(i64 4, ptr %5) #13
  %24 = load ptr, ptr %3, align 8, !tbaa !6
  %25 = getelementptr inbounds nuw %struct.dt_database_t, ptr %24, i32 0, i32 5
  %26 = load ptr, ptr %25, align 8, !tbaa !11
  %27 = call i32 @_get_pragma_int_val(ptr noundef %26, ptr noundef @.str.97)
  store i32 %27, ptr %5, align 4, !tbaa !21
  call void @llvm.lifetime.start.p0(i64 4, ptr %6) #13
  %28 = load ptr, ptr %3, align 8, !tbaa !6
  %29 = getelementptr inbounds nuw %struct.dt_database_t, ptr %28, i32 0, i32 5
  %30 = load ptr, ptr %29, align 8, !tbaa !11
  %31 = call i32 @_get_pragma_int_val(ptr noundef %30, ptr noundef @.str.85)
  store i32 %31, ptr %6, align 4, !tbaa !21
  call void @llvm.lifetime.start.p0(i64 4, ptr %7) #13
  %32 = load ptr, ptr %3, align 8, !tbaa !6
  %33 = getelementptr inbounds nuw %struct.dt_database_t, ptr %32, i32 0, i32 5
  %34 = load ptr, ptr %33, align 8, !tbaa !11
  %35 = call i32 @_get_pragma_int_val(ptr noundef %34, ptr noundef @.str.86)
  store i32 %35, ptr %7, align 4, !tbaa !21
  call void @llvm.lifetime.start.p0(i64 4, ptr %8) #13
  %36 = load ptr, ptr %3, align 8, !tbaa !6
  %37 = getelementptr inbounds nuw %struct.dt_database_t, ptr %36, i32 0, i32 5
  %38 = load ptr, ptr %37, align 8, !tbaa !11
  %39 = call i32 @_get_pragma_int_val(ptr noundef %38, ptr noundef @.str.98)
  store i32 %39, ptr %8, align 4, !tbaa !21
  call void @llvm.lifetime.start.p0(i64 4, ptr %9) #13
  %40 = load ptr, ptr %3, align 8, !tbaa !6
  %41 = getelementptr inbounds nuw %struct.dt_database_t, ptr %40, i32 0, i32 5
  %42 = load ptr, ptr %41, align 8, !tbaa !11
  %43 = call i32 @_get_pragma_int_val(ptr noundef %42, ptr noundef @.str.87)
  store i32 %43, ptr %9, align 4, !tbaa !21
  br label %44

44:                                               ; preds = %19
  %45 = load i32, ptr getelementptr inbounds nuw (%struct.darktable_t, ptr @darktable, i32 0, i32 2), align 8, !tbaa !27
  %46 = and i32 256, %45
  %47 = icmp ne i32 %46, 0
  br i1 %47, label %48, label %58

48:                                               ; preds = %44
  %49 = load i32, ptr getelementptr inbounds nuw (%struct.darktable_t, ptr @darktable, i32 0, i32 2), align 8, !tbaa !27
  %50 = xor i32 %49, -1
  %51 = and i32 0, %50
  %52 = icmp ne i32 %51, 0
  br i1 %52, label %58, label %53

53:                                               ; preds = %48
  %54 = load i32, ptr %4, align 4, !tbaa !21
  %55 = load i32, ptr %5, align 4, !tbaa !21
  %56 = load i32, ptr %7, align 4, !tbaa !21
  %57 = load i32, ptr %8, align 4, !tbaa !21
  call void (ptr, ...) @dt_print_ext(ptr noundef @.str.99, i32 noundef %54, i32 noundef %55, i32 noundef %56, i32 noundef %57)
  br label %58

58:                                               ; preds = %53, %48, %44
  br label %59

59:                                               ; preds = %58
  br label %60

60:                                               ; preds = %59
  %61 = load i32, ptr %5, align 4, !tbaa !21
  %62 = icmp sle i32 %61, 0
  br i1 %62, label %66, label %63

63:                                               ; preds = %60
  %64 = load i32, ptr %8, align 4, !tbaa !21
  %65 = icmp sle i32 %64, 0
  br i1 %65, label %66, label %82

66:                                               ; preds = %63, %60
  br label %67

67:                                               ; preds = %66
  %68 = load i32, ptr getelementptr inbounds nuw (%struct.darktable_t, ptr @darktable, i32 0, i32 2), align 8, !tbaa !27
  %69 = and i32 256, %68
  %70 = icmp ne i32 %69, 0
  br i1 %70, label %71, label %79

71:                                               ; preds = %67
  %72 = load i32, ptr getelementptr inbounds nuw (%struct.darktable_t, ptr @darktable, i32 0, i32 2), align 8, !tbaa !27
  %73 = xor i32 %72, -1
  %74 = and i32 0, %73
  %75 = icmp ne i32 %74, 0
  br i1 %75, label %79, label %76

76:                                               ; preds = %71
  %77 = load i32, ptr %5, align 4, !tbaa !21
  %78 = load i32, ptr %8, align 4, !tbaa !21
  call void (ptr, ...) @dt_print_ext(ptr noundef @.str.100, i32 noundef %77, i32 noundef %78)
  br label %79

79:                                               ; preds = %76, %71, %67
  br label %80

80:                                               ; preds = %79
  br label %81

81:                                               ; preds = %80
  store i32 0, ptr %2, align 4
  store i32 1, ptr %10, align 4
  br label %124

82:                                               ; preds = %63
  call void @llvm.lifetime.start.p0(i64 4, ptr %11) #13
  %83 = load i32, ptr %4, align 4, !tbaa !21
  %84 = mul nsw i32 %83, 100
  %85 = load i32, ptr %5, align 4, !tbaa !21
  %86 = sdiv i32 %84, %85
  store i32 %86, ptr %11, align 4, !tbaa !21
  call void @llvm.lifetime.start.p0(i64 4, ptr %12) #13
  %87 = load i32, ptr %7, align 4, !tbaa !21
  %88 = mul nsw i32 %87, 100
  %89 = load i32, ptr %8, align 4, !tbaa !21
  %90 = sdiv i32 %88, %89
  store i32 %90, ptr %12, align 4, !tbaa !21
  call void @llvm.lifetime.start.p0(i64 4, ptr %13) #13
  %91 = call i32 @dt_conf_get_int(ptr noundef @.str.101)
  store i32 %91, ptr %13, align 4, !tbaa !21
  %92 = load i32, ptr %11, align 4, !tbaa !21
  %93 = load i32, ptr %13, align 4, !tbaa !21
  %94 = icmp sge i32 %92, %93
  br i1 %94, label %99, label %95

95:                                               ; preds = %82
  %96 = load i32, ptr %12, align 4, !tbaa !21
  %97 = load i32, ptr %13, align 4, !tbaa !21
  %98 = icmp sge i32 %96, %97
  br i1 %98, label %99, label %122

99:                                               ; preds = %95, %82
  call void @llvm.lifetime.start.p0(i64 8, ptr %14) #13
  %100 = load i32, ptr %4, align 4, !tbaa !21
  %101 = load i32, ptr %6, align 4, !tbaa !21
  %102 = mul nsw i32 %100, %101
  %103 = load i32, ptr %7, align 4, !tbaa !21
  %104 = load i32, ptr %9, align 4, !tbaa !21
  %105 = mul nsw i32 %103, %104
  %106 = add nsw i32 %102, %105
  %107 = sext i32 %106 to i64
  store i64 %107, ptr %14, align 8, !tbaa !79
  br label %108

108:                                              ; preds = %99
  %109 = load i32, ptr getelementptr inbounds nuw (%struct.darktable_t, ptr @darktable, i32 0, i32 2), align 8, !tbaa !27
  %110 = and i32 256, %109
  %111 = icmp ne i32 %110, 0
  br i1 %111, label %112, label %119

112:                                              ; preds = %108
  %113 = load i32, ptr getelementptr inbounds nuw (%struct.darktable_t, ptr @darktable, i32 0, i32 2), align 8, !tbaa !27
  %114 = xor i32 %113, -1
  %115 = and i32 0, %114
  %116 = icmp ne i32 %115, 0
  br i1 %116, label %119, label %117

117:                                              ; preds = %112
  %118 = load i64, ptr %14, align 8, !tbaa !79
  call void (ptr, ...) @dt_print_ext(ptr noundef @.str.102, i64 noundef %118)
  br label %119

119:                                              ; preds = %117, %112, %108
  br label %120

120:                                              ; preds = %119
  br label %121

121:                                              ; preds = %120
  store i32 1, ptr %2, align 4
  store i32 1, ptr %10, align 4
  call void @llvm.lifetime.end.p0(i64 8, ptr %14) #13
  br label %123

122:                                              ; preds = %95
  store i32 0, ptr %2, align 4
  store i32 1, ptr %10, align 4
  br label %123

123:                                              ; preds = %122, %121
  call void @llvm.lifetime.end.p0(i64 4, ptr %13) #13
  call void @llvm.lifetime.end.p0(i64 4, ptr %12) #13
  call void @llvm.lifetime.end.p0(i64 4, ptr %11) #13
  br label %124

124:                                              ; preds = %123, %81
  call void @llvm.lifetime.end.p0(i64 4, ptr %9) #13
  call void @llvm.lifetime.end.p0(i64 4, ptr %8) #13
  call void @llvm.lifetime.end.p0(i64 4, ptr %7) #13
  call void @llvm.lifetime.end.p0(i64 4, ptr %6) #13
  call void @llvm.lifetime.end.p0(i64 4, ptr %5) #13
  call void @llvm.lifetime.end.p0(i64 4, ptr %4) #13
  br label %125

125:                                              ; preds = %124, %18
  %126 = load i32, ptr %2, align 4
  ret i32 %126
}