; Function Attrs: nounwind uwtable
define range(i32 0, 2) i32 @dt_database_maybe_maintenance(ptr noundef readonly captures(none) %0) local_unnamed_addr #0 {
  %2 = alloca ptr, align 8
  %3 = alloca ptr, align 8
  %4 = alloca ptr, align 8
  %5 = alloca ptr, align 8
  %6 = alloca ptr, align 8
  %7 = alloca ptr, align 8
  %8 = getelementptr inbounds nuw i8, ptr %0, i64 8
  %9 = load ptr, ptr %8, align 8, !tbaa !23
  %10 = tail call i32 @g_strcmp0(ptr noundef %9, ptr noundef nonnull @.str.23) #18
  %.not.i = icmp eq i32 %10, 0
  br i1 %.not.i, label %_is_mem_db.exit.thread, label %_is_mem_db.exit

_is_mem_db.exit:                                  ; preds = %1
  %11 = getelementptr inbounds nuw i8, ptr %0, i64 24
  %12 = load ptr, ptr %11, align 8, !tbaa !24
  %13 = tail call i32 @g_strcmp0(ptr noundef %12, ptr noundef nonnull @.str.23) #18
  %.not2.i.not = icmp eq i32 %13, 0
  br i1 %.not2.i.not, label %_is_mem_db.exit.thread, label %14

14:                                               ; preds = %_is_mem_db.exit
  %15 = getelementptr inbounds nuw i8, ptr %0, i64 40
  %16 = load ptr, ptr %15, align 8, !tbaa !6
  %17 = tail call noalias ptr (ptr, ...) @g_strdup_printf(ptr noundef nonnull @.str.19, ptr noundef nonnull @.str.84) #18
  call void @llvm.lifetime.start.p0(i64 8, ptr nonnull %7) #18
  %18 = call i32 @sqlite3_prepare_v2(ptr noundef %16, ptr noundef %17, i32 noundef -1, ptr noundef nonnull %7, ptr noundef null) #18
  %19 = icmp eq i32 %18, 0
  br i1 %19, label %20, label %_get_pragma_int_val.exit

20:                                               ; preds = %14
  %21 = load ptr, ptr %7, align 8, !tbaa !21
  %22 = call i32 @sqlite3_step(ptr noundef %21) #18
  %23 = icmp eq i32 %22, 100
  br i1 %23, label %24, label %_get_pragma_int_val.exit

24:                                               ; preds = %20
  %25 = load ptr, ptr %7, align 8, !tbaa !21
  %26 = call i32 @sqlite3_column_int(ptr noundef %25, i32 noundef 0) #18
  br label %_get_pragma_int_val.exit

_get_pragma_int_val.exit:                         ; preds = %14, %20, %24
  %.0.i = phi i32 [ %26, %24 ], [ -1, %20 ], [ -1, %14 ]
  %27 = load ptr, ptr %7, align 8, !tbaa !21
  %28 = call i32 @sqlite3_finalize(ptr noundef %27) #18
  call void @g_free(ptr noundef %17) #18
  call void @llvm.lifetime.end.p0(i64 8, ptr nonnull %7) #18
  %29 = load ptr, ptr %15, align 8, !tbaa !6
  %30 = call noalias ptr (ptr, ...) @g_strdup_printf(ptr noundef nonnull @.str.19, ptr noundef nonnull @.str.97) #18
  call void @llvm.lifetime.start.p0(i64 8, ptr nonnull %6) #18
  %31 = call i32 @sqlite3_prepare_v2(ptr noundef %29, ptr noundef %30, i32 noundef -1, ptr noundef nonnull %6, ptr noundef null) #18
  %32 = icmp eq i32 %31, 0
  br i1 %32, label %33, label %_get_pragma_int_val.exit38

33:                                               ; preds = %_get_pragma_int_val.exit
  %34 = load ptr, ptr %6, align 8, !tbaa !21
  %35 = call i32 @sqlite3_step(ptr noundef %34) #18
  %36 = icmp eq i32 %35, 100
  br i1 %36, label %37, label %_get_pragma_int_val.exit38

37:                                               ; preds = %33
  %38 = load ptr, ptr %6, align 8, !tbaa !21
  %39 = call i32 @sqlite3_column_int(ptr noundef %38, i32 noundef 0) #18
  br label %_get_pragma_int_val.exit38

_get_pragma_int_val.exit38:                       ; preds = %_get_pragma_int_val.exit, %33, %37
  %.0.i37 = phi i32 [ %39, %37 ], [ -1, %33 ], [ -1, %_get_pragma_int_val.exit ]
  %40 = load ptr, ptr %6, align 8, !tbaa !21
  %41 = call i32 @sqlite3_finalize(ptr noundef %40) #18
  call void @g_free(ptr noundef %30) #18
  call void @llvm.lifetime.end.p0(i64 8, ptr nonnull %6) #18
  %42 = load ptr, ptr %15, align 8, !tbaa !6
  %43 = call noalias ptr (ptr, ...) @g_strdup_printf(ptr noundef nonnull @.str.19, ptr noundef nonnull @.str.85) #18
  call void @llvm.lifetime.start.p0(i64 8, ptr nonnull %5) #18
  %44 = call i32 @sqlite3_prepare_v2(ptr noundef %42, ptr noundef %43, i32 noundef -1, ptr noundef nonnull %5, ptr noundef null) #18
  %45 = icmp eq i32 %44, 0
  br i1 %45, label %46, label %_get_pragma_int_val.exit40

46:                                               ; preds = %_get_pragma_int_val.exit38
  %47 = load ptr, ptr %5, align 8, !tbaa !21
  %48 = call i32 @sqlite3_step(ptr noundef %47) #18
  %49 = icmp eq i32 %48, 100
  br i1 %49, label %50, label %_get_pragma_int_val.exit40

50:                                               ; preds = %46
  %51 = load ptr, ptr %5, align 8, !tbaa !21
  %52 = call i32 @sqlite3_column_int(ptr noundef %51, i32 noundef 0) #18
  br label %_get_pragma_int_val.exit40

_get_pragma_int_val.exit40:                       ; preds = %_get_pragma_int_val.exit38, %46, %50
  %.0.i39 = phi i32 [ %52, %50 ], [ -1, %46 ], [ -1, %_get_pragma_int_val.exit38 ]
  %53 = load ptr, ptr %5, align 8, !tbaa !21
  %54 = call i32 @sqlite3_finalize(ptr noundef %53) #18
  call void @g_free(ptr noundef %43) #18
  call void @llvm.lifetime.end.p0(i64 8, ptr nonnull %5) #18
  %55 = load ptr, ptr %15, align 8, !tbaa !6
  %56 = call noalias ptr (ptr, ...) @g_strdup_printf(ptr noundef nonnull @.str.19, ptr noundef nonnull @.str.86) #18
  call void @llvm.lifetime.start.p0(i64 8, ptr nonnull %4) #18
  %57 = call i32 @sqlite3_prepare_v2(ptr noundef %55, ptr noundef %56, i32 noundef -1, ptr noundef nonnull %4, ptr noundef null) #18
  %58 = icmp eq i32 %57, 0
  br i1 %58, label %59, label %_get_pragma_int_val.exit42

59:                                               ; preds = %_get_pragma_int_val.exit40
  %60 = load ptr, ptr %4, align 8, !tbaa !21
  %61 = call i32 @sqlite3_step(ptr noundef %60) #18
  %62 = icmp eq i32 %61, 100
  br i1 %62, label %63, label %_get_pragma_int_val.exit42

63:                                               ; preds = %59
  %64 = load ptr, ptr %4, align 8, !tbaa !21
  %65 = call i32 @sqlite3_column_int(ptr noundef %64, i32 noundef 0) #18
  br label %_get_pragma_int_val.exit42

_get_pragma_int_val.exit42:                       ; preds = %_get_pragma_int_val.exit40, %59, %63
  %.0.i41 = phi i32 [ %65, %63 ], [ -1, %59 ], [ -1, %_get_pragma_int_val.exit40 ]
  %66 = load ptr, ptr %4, align 8, !tbaa !21
  %67 = call i32 @sqlite3_finalize(ptr noundef %66) #18
  call void @g_free(ptr noundef %56) #18
  call void @llvm.lifetime.end.p0(i64 8, ptr nonnull %4) #18
  %68 = load ptr, ptr %15, align 8, !tbaa !6
  %69 = call noalias ptr (ptr, ...) @g_strdup_printf(ptr noundef nonnull @.str.19, ptr noundef nonnull @.str.98) #18
  call void @llvm.lifetime.start.p0(i64 8, ptr nonnull %3) #18
  %70 = call i32 @sqlite3_prepare_v2(ptr noundef %68, ptr noundef %69, i32 noundef -1, ptr noundef nonnull %3, ptr noundef null) #18
  %71 = icmp eq i32 %70, 0
  br i1 %71, label %72, label %_get_pragma_int_val.exit44

72:                                               ; preds = %_get_pragma_int_val.exit42
  %73 = load ptr, ptr %3, align 8, !tbaa !21
  %74 = call i32 @sqlite3_step(ptr noundef %73) #18
  %75 = icmp eq i32 %74, 100
  br i1 %75, label %76, label %_get_pragma_int_val.exit44

76:                                               ; preds = %72
  %77 = load ptr, ptr %3, align 8, !tbaa !21
  %78 = call i32 @sqlite3_column_int(ptr noundef %77, i32 noundef 0) #18
  br label %_get_pragma_int_val.exit44

_get_pragma_int_val.exit44:                       ; preds = %_get_pragma_int_val.exit42, %72, %76
  %.0.i43 = phi i32 [ %78, %76 ], [ -1, %72 ], [ -1, %_get_pragma_int_val.exit42 ]
  %79 = load ptr, ptr %3, align 8, !tbaa !21
  %80 = call i32 @sqlite3_finalize(ptr noundef %79) #18
  call void @g_free(ptr noundef %69) #18
  call void @llvm.lifetime.end.p0(i64 8, ptr nonnull %3) #18
  %81 = load ptr, ptr %15, align 8, !tbaa !6
  %82 = call noalias ptr (ptr, ...) @g_strdup_printf(ptr noundef nonnull @.str.19, ptr noundef nonnull @.str.87) #18
  call void @llvm.lifetime.start.p0(i64 8, ptr nonnull %2) #18
  %83 = call i32 @sqlite3_prepare_v2(ptr noundef %81, ptr noundef %82, i32 noundef -1, ptr noundef nonnull %2, ptr noundef null) #18
  %84 = icmp eq i32 %83, 0
  br i1 %84, label %85, label %_get_pragma_int_val.exit46

85:                                               ; preds = %_get_pragma_int_val.exit44
  %86 = load ptr, ptr %2, align 8, !tbaa !21
  %87 = call i32 @sqlite3_step(ptr noundef %86) #18
  %88 = icmp eq i32 %87, 100
  br i1 %88, label %89, label %_get_pragma_int_val.exit46

89:                                               ; preds = %85
  %90 = load ptr, ptr %2, align 8, !tbaa !21
  %91 = call i32 @sqlite3_column_int(ptr noundef %90, i32 noundef 0) #18
  br label %_get_pragma_int_val.exit46

_get_pragma_int_val.exit46:                       ; preds = %_get_pragma_int_val.exit44, %85, %89
  %.0.i45 = phi i32 [ %91, %89 ], [ -1, %85 ], [ -1, %_get_pragma_int_val.exit44 ]
  %92 = load ptr, ptr %2, align 8, !tbaa !21
  %93 = call i32 @sqlite3_finalize(ptr noundef %92) #18
  call void @g_free(ptr noundef %82) #18
  call void @llvm.lifetime.end.p0(i64 8, ptr nonnull %2) #18
  %94 = load i32, ptr getelementptr inbounds nuw (i8, ptr @darktable, i64 8), align 8, !tbaa !25
  %95 = and i32 %94, 256
  %.not32 = icmp eq i32 %95, 0
  br i1 %.not32, label %97, label %96

96:                                               ; preds = %_get_pragma_int_val.exit46
  call void (ptr, ...) @dt_print_ext(ptr noundef nonnull @.str.99, i32 noundef %.0.i, i32 noundef %.0.i37, i32 noundef %.0.i41, i32 noundef %.0.i43) #18
  br label %97

97:                                               ; preds = %96, %_get_pragma_int_val.exit46
  %98 = icmp slt i32 %.0.i37, 1
  %99 = icmp slt i32 %.0.i43, 1
  %or.cond = select i1 %98, i1 true, i1 %99
  br i1 %or.cond, label %100, label %104

100:                                              ; preds = %97
  %101 = load i32, ptr getelementptr inbounds nuw (i8, ptr @darktable, i64 8), align 8, !tbaa !25
  %102 = and i32 %101, 256
  %.not36 = icmp eq i32 %102, 0
  br i1 %.not36, label %_is_mem_db.exit.thread, label %103

103:                                              ; preds = %100
  call void (ptr, ...) @dt_print_ext(ptr noundef nonnull @.str.100, i32 noundef %.0.i37, i32 noundef %.0.i43) #18
  br label %_is_mem_db.exit.thread

104:                                              ; preds = %97
  %105 = mul nsw i32 %.0.i, 100
  %106 = sdiv i32 %105, %.0.i37
  %107 = call i32 @dt_conf_get_int(ptr noundef nonnull @.str.101) #18
  %.not33 = icmp slt i32 %106, %107
  br i1 %.not33, label %108, label %111

108:                                              ; preds = %104
  %109 = mul nsw i32 %.0.i41, 100
  %110 = sdiv i32 %109, %.0.i43
  %.not34 = icmp slt i32 %110, %107
  br i1 %.not34, label %_is_mem_db.exit.thread, label %111

111:                                              ; preds = %108, %104
  %112 = load i32, ptr getelementptr inbounds nuw (i8, ptr @darktable, i64 8), align 8, !tbaa !25
  %113 = and i32 %112, 256
  %.not35 = icmp eq i32 %113, 0
  br i1 %.not35, label %_is_mem_db.exit.thread, label %114

114:                                              ; preds = %111
  %115 = mul nsw i32 %.0.i39, %.0.i
  %116 = mul nsw i32 %.0.i45, %.0.i41
  %117 = add nsw i32 %116, %115
  %118 = sext i32 %117 to i64
  call void (ptr, ...) @dt_print_ext(ptr noundef nonnull @.str.102, i64 noundef %118) #18
  br label %_is_mem_db.exit.thread

_is_mem_db.exit.thread:                           ; preds = %1, %103, %100, %108, %111, %114, %_is_mem_db.exit
  %.0 = phi i32 [ 0, %_is_mem_db.exit ], [ 0, %103 ], [ 0, %100 ], [ 1, %114 ], [ 1, %111 ], [ 0, %108 ], [ 0, %1 ]
  ret i32 %.0
}